target datalayout = "e-m:e-p270:32:32-p271:32:32-p272:64:64-i64:64-i128:128-f80:128-n8:16:32:64-S128"
target triple = "x86_64-unknown-linux-gnu"

%"class.std::__cxx11::basic_string" = type { %"struct.std::__cxx11::basic_string<char>::_Alloc_hider", i64, %union.anon }
%"struct.std::__cxx11::basic_string<char>::_Alloc_hider" = type { ptr }
%union.anon = type { i64, [8 x i8] }
%"class.rocksdb::BlockCacheFile" = type { %"struct.rocksdb::LRUElement", %"class.rocksdb::port::RWMutex", ptr, %"class.std::__cxx11::basic_string", i32, %"class.std::__cxx11::list" }
%"struct.rocksdb::LRUElement" = type { ptr, ptr, ptr, %"struct.std::atomic" }
%"struct.std::atomic" = type { %"struct.std::__atomic_base" }
%"struct.std::__atomic_base" = type { i64 }
%"class.rocksdb::port::RWMutex" = type { %union.pthread_rwlock_t }
%union.pthread_rwlock_t = type { %struct.__pthread_rwlock_arch_t }
%struct.__pthread_rwlock_arch_t = type { i32, i32, i32, i32, i32, i32, i32, i32, i8, [7 x i8], i64, i32 }
%"class.std::__cxx11::list" = type { %"class.std::__cxx11::_List_base" }
%"class.std::__cxx11::_List_base" = type { %"struct.std::__cxx11::_List_base<rocksdb::BlockInfo *, std::allocator<rocksdb::BlockInfo *>>::_List_impl" }
%"struct.std::__cxx11::_List_base<rocksdb::BlockInfo *, std::allocator<rocksdb::BlockInfo *>>::_List_impl" = type { %"struct.std::__detail::_List_node_header" }
%"struct.std::__detail::_List_node_header" = type { %"struct.std::__detail::_List_node_base", i64 }
%"struct.std::__detail::_List_node_base" = type { ptr, ptr }
%"struct.std::_Vector_base.17" = type { %"struct.std::_Vector_base<rocksdb::CacheWriteBuffer *, std::allocator<rocksdb::CacheWriteBuffer *>>::_Vector_impl" }
%"struct.std::_Vector_base<rocksdb::CacheWriteBuffer *, std::allocator<rocksdb::CacheWriteBuffer *>>::_Vector_impl" = type { %"struct.std::_Vector_base<rocksdb::CacheWriteBuffer *, std::allocator<rocksdb::CacheWriteBuffer *>>::_Vector_impl_data" }
%"struct.std::_Vector_base<rocksdb::CacheWriteBuffer *, std::allocator<rocksdb::CacheWriteBuffer *>>::_Vector_impl_data" = type { ptr, ptr, ptr }
%"class.rocksdb::WriteLock" = type { ptr }
%"class.std::__shared_count" = type { ptr }
%"class.rocksdb::RandomAccessCacheFile" = type { %"class.rocksdb::BlockCacheFile", %"class.std::unique_ptr.29", %"class.std::shared_ptr.37" }
%"class.std::unique_ptr.29" = type { %"struct.std::__uniq_ptr_data.30" }
%"struct.std::__uniq_ptr_data.30" = type { %"class.std::__uniq_ptr_impl.31" }
%"class.std::__uniq_ptr_impl.31" = type { %"class.std::tuple.32" }
%"class.std::tuple.32" = type { %"struct.std::_Tuple_impl.33" }
%"struct.std::_Tuple_impl.33" = type { %"struct.std::_Head_base.36" }
%"struct.std::_Head_base.36" = type { ptr }
%"class.std::shared_ptr.37" = type { %"class.std::__shared_ptr.38" }
%"class.std::__shared_ptr.38" = type { ptr, %"class.std::__shared_count" }
%"class.rocksdb::WriteableCacheFile" = type <{ %"class.rocksdb::RandomAccessCacheFile", ptr, ptr, %"class.std::unique_ptr.56", %"class.std::vector.16", i32, i32, i8, [3 x i8], i32, i64, i64, i64, i8, [7 x i8] }>
%"class.std::unique_ptr.56" = type { %"struct.std::__uniq_ptr_data.57" }
%"struct.std::__uniq_ptr_data.57" = type { %"class.std::__uniq_ptr_impl.58" }
%"class.std::__uniq_ptr_impl.58" = type { %"class.std::tuple.59" }
%"class.std::tuple.59" = type { %"struct.std::_Tuple_impl.60" }
%"struct.std::_Tuple_impl.60" = type { %"struct.std::_Head_base.63" }
%"struct.std::_Head_base.63" = type { ptr }
%"class.std::vector.16" = type { %"struct.std::_Vector_base.17" }

; Function Attrs: mustprogress uwtable
define void @_ZN7rocksdb18WriteableCacheFile22CloseAndOpenForReadingEv(ptr noundef nonnull align 8 dereferenceable(273) %this) #0 align 2 {
entry:
  %this.addr = alloca ptr, align 8
  store ptr %this, ptr %this.addr, align 8
  %this1 = load ptr, ptr %this.addr, align 8
  call void @_ZN7rocksdb18WriteableCacheFile5CloseEv(ptr noundef nonnull align 8 dereferenceable(273) %this1)
  %enable_direct_reads_ = getelementptr inbounds %"class.rocksdb::WriteableCacheFile", ptr %this1, i32 0, i32 13
  %0 = load i8, ptr %enable_direct_reads_, align 8
  %tobool = trunc i8 %0 to i1
  %call = call noundef zeroext i1 @_ZN7rocksdb21RandomAccessCacheFile8OpenImplEb(ptr noundef nonnull align 8 dereferenceable(184) %this1, i1 noundef zeroext %tobool)
  ret void
}

; Function Attrs: mustprogress nounwind uwtable
define linkonce_odr void @_ZN7rocksdb9WriteLockD2Ev(ptr noundef nonnull align 8 dereferenceable(8) %this) unnamed_addr #2 comdat align 2 personality ptr @__gxx_personality_v0 {
entry:
  %this.addr = alloca ptr, align 8
  store ptr %this, ptr %this.addr, align 8
  %this1 = load ptr, ptr %this.addr, align 8
  %mu_ = getelementptr inbounds %"class.rocksdb::WriteLock", ptr %this1, i32 0, i32 0
  %0 = load ptr, ptr %mu_, align 8
  invoke void @_ZN7rocksdb4port7RWMutex11WriteUnlockEv(ptr noundef nonnull align 8 dereferenceable(56) %0)
          to label %invoke.cont unwind label %terminate.lpad

invoke.cont:                                      ; preds = %entry
  ret void

terminate.lpad:                                   ; preds = %entry
  %1 = landingpad { ptr, i32 }
          catch ptr null
  %2 = extractvalue { ptr, i32 } %1, 0
  call void @__clang_call_terminate(ptr %2) #13
  unreachable
}

; Function Attrs: mustprogress nounwind uwtable
define linkonce_odr noundef i64 @_ZNKSt6vectorIPN7rocksdb16CacheWriteBufferESaIS2_EE4sizeEv(ptr noundef nonnull align 8 dereferenceable(24) %this) #2 comdat align 2 {
entry:
  %this.addr = alloca ptr, align 8
  store ptr %this, ptr %this.addr, align 8
  %this1 = load ptr, ptr %this.addr, align 8
  %_M_impl = getelementptr inbounds %"struct.std::_Vector_base.17", ptr %this1, i32 0, i32 0
  %_M_finish = getelementptr inbounds %"struct.std::_Vector_base<rocksdb::CacheWriteBuffer *, std::allocator<rocksdb::CacheWriteBuffer *>>::_Vector_impl_data", ptr %_M_impl, i32 0, i32 1
  %0 = load ptr, ptr %_M_finish, align 8
  %_M_impl2 = getelementptr inbounds %"struct.std::_Vector_base.17", ptr %this1, i32 0, i32 0
  %_M_start = getelementptr inbounds %"struct.std::_Vector_base<rocksdb::CacheWriteBuffer *, std::allocator<rocksdb::CacheWriteBuffer *>>::_Vector_impl_data", ptr %_M_impl2, i32 0, i32 0
  %1 = load ptr, ptr %_M_start, align 8
  %sub.ptr.lhs.cast = ptrtoint ptr %0 to i64
  %sub.ptr.rhs.cast = ptrtoint ptr %1 to i64
  %sub.ptr.sub = sub i64 %sub.ptr.lhs.cast, %sub.ptr.rhs.cast
  %sub.ptr.div = sdiv exact i64 %sub.ptr.sub, 8
  ret i64 %sub.ptr.div
}

; Function Attrs: mustprogress uwtable
define linkonce_odr void @_ZN7rocksdb9WriteLockC2EPNS_4port7RWMutexE(ptr noundef nonnull align 8 dereferenceable(8) %this, ptr noundef %mu) unnamed_addr #0 comdat align 2 {
entry:
  %this.addr = alloca ptr, align 8
  %mu.addr = alloca ptr, align 8
  store ptr %this, ptr %this.addr, align 8
  store ptr %mu, ptr %mu.addr, align 8
  %this1 = load ptr, ptr %this.addr, align 8
  %mu_ = getelementptr inbounds %"class.rocksdb::WriteLock", ptr %this1, i32 0, i32 0
  %0 = load ptr, ptr %mu.addr, align 8
  store ptr %0, ptr %mu_, align 8
  %mu_2 = getelementptr inbounds %"class.rocksdb::WriteLock", ptr %this1, i32 0, i32 0
  %1 = load ptr, ptr %mu_2, align 8
  call void @_ZN7rocksdb4port7RWMutex9WriteLockEv(ptr noundef nonnull align 8 dereferenceable(56) %1)
  ret void
}

; Function Attrs: mustprogress uwtable
define void @_ZN7rocksdb18WriteableCacheFile15BufferWriteDoneEv(ptr noundef nonnull align 8 dereferenceable(273) %this) #0 align 2 personality ptr @__gxx_personality_v0 {
entry:
  %this.addr = alloca ptr, align 8
  %_ = alloca %"class.rocksdb::WriteLock", align 8
  %exn.slot = alloca ptr, align 8
  %ehselector.slot = alloca i32, align 4
  store ptr %this, ptr %this.addr, align 8
  %this1 = load ptr, ptr %this.addr, align 8
  %rwlock_ = getelementptr inbounds %"class.rocksdb::BlockCacheFile", ptr %this1, i32 0, i32 1
  call void @_ZN7rocksdb9WriteLockC2EPNS_4port7RWMutexE(ptr noundef nonnull align 8 dereferenceable(8) %_, ptr noundef %rwlock_)
  %pending_ios_ = getelementptr inbounds %"class.rocksdb::WriteableCacheFile", ptr %this1, i32 0, i32 12
  %0 = load i64, ptr %pending_ios_, align 8
  %dec = add i64 %0, -1
  store i64 %dec, ptr %pending_ios_, align 8
  %buf_doff_ = getelementptr inbounds %"class.rocksdb::WriteableCacheFile", ptr %this1, i32 0, i32 11
  %1 = load i64, ptr %buf_doff_, align 8
  %bufs_ = getelementptr inbounds %"class.rocksdb::WriteableCacheFile", ptr %this1, i32 0, i32 4
  %call = call noundef i64 @_ZNKSt6vectorIPN7rocksdb16CacheWriteBufferESaIS2_EE4sizeEv(ptr noundef nonnull align 8 dereferenceable(24) %bufs_) #12
  %cmp = icmp ult i64 %1, %call
  br i1 %cmp, label %if.then, label %if.end

if.then:                                          ; preds = %entry
  invoke void @_ZN7rocksdb18WriteableCacheFile14DispatchBufferEv(ptr noundef nonnull align 8 dereferenceable(273) %this1)
          to label %invoke.cont unwind label %lpad

invoke.cont:                                      ; preds = %if.then
  br label %if.end

lpad:                                             ; preds = %if.then9, %if.then
  %2 = landingpad { ptr, i32 }
          cleanup
  %3 = extractvalue { ptr, i32 } %2, 0
  store ptr %3, ptr %exn.slot, align 8
  %4 = extractvalue { ptr, i32 } %2, 1
  store i32 %4, ptr %ehselector.slot, align 4
  call void @_ZN7rocksdb9WriteLockD2Ev(ptr noundef nonnull align 8 dereferenceable(8) %_) #12
  br label %eh.resume

if.end:                                           ; preds = %invoke.cont, %entry
  %eof_ = getelementptr inbounds %"class.rocksdb::WriteableCacheFile", ptr %this1, i32 0, i32 7
  %5 = load i8, ptr %eof_, align 8
  %tobool = trunc i8 %5 to i1
  br i1 %tobool, label %land.lhs.true, label %if.end11

land.lhs.true:                                    ; preds = %if.end
  %buf_doff_2 = getelementptr inbounds %"class.rocksdb::WriteableCacheFile", ptr %this1, i32 0, i32 11
  %6 = load i64, ptr %buf_doff_2, align 8
  %bufs_3 = getelementptr inbounds %"class.rocksdb::WriteableCacheFile", ptr %this1, i32 0, i32 4
  %call4 = call noundef i64 @_ZNKSt6vectorIPN7rocksdb16CacheWriteBufferESaIS2_EE4sizeEv(ptr noundef nonnull align 8 dereferenceable(24) %bufs_3) #12
  %cmp5 = icmp uge i64 %6, %call4
  br i1 %cmp5, label %land.lhs.true6, label %if.end11

land.lhs.true6:                                   ; preds = %land.lhs.true
  %pending_ios_7 = getelementptr inbounds %"class.rocksdb::WriteableCacheFile", ptr %this1, i32 0, i32 12
  %7 = load i64, ptr %pending_ios_7, align 8
  %tobool8 = icmp ne i64 %7, 0
  br i1 %tobool8, label %if.end11, label %if.then9

if.then9:                                         ; preds = %land.lhs.true6
  invoke void @_ZN7rocksdb18WriteableCacheFile22CloseAndOpenForReadingEv(ptr noundef nonnull align 8 dereferenceable(273) %this1)
          to label %invoke.cont10 unwind label %lpad

invoke.cont10:                                    ; preds = %if.then9
  br label %if.end11

if.end11:                                         ; preds = %invoke.cont10, %land.lhs.true6, %land.lhs.true, %if.end
  call void @_ZN7rocksdb9WriteLockD2Ev(ptr noundef nonnull align 8 dereferenceable(8) %_) #12
  ret void

eh.resume:                                        ; preds = %lpad
  %exn = load ptr, ptr %exn.slot, align 8
  %sel = load i32, ptr %ehselector.slot, align 4
  %lpad.val = insertvalue { ptr, i32 } poison, ptr %exn, 0
  %lpad.val12 = insertvalue { ptr, i32 } %lpad.val, i32 %sel, 1
  resume { ptr, i32 } %lpad.val12
}