; Function Attrs: mustprogress uwtable
define void @_ZN7rocksdb18WriteableCacheFile15BufferWriteDoneEv(ptr noundef nonnull align 8 dereferenceable(273) %this) #0 align 2 personality ptr @__gxx_personality_v0 {
entry:
  %rwlock_ = getelementptr inbounds i8, ptr %this, i64 32
  tail call void @_ZN7rocksdb4port7RWMutex9WriteLockEv(ptr noundef nonnull align 8 dereferenceable(56) %rwlock_)
  %pending_ios_ = getelementptr inbounds i8, ptr %this, i64 264
  %0 = load i64, ptr %pending_ios_, align 8
  %dec = add i64 %0, -1
  store i64 %dec, ptr %pending_ios_, align 8
  %buf_doff_ = getelementptr inbounds i8, ptr %this, i64 256
  %1 = load i64, ptr %buf_doff_, align 8
  %bufs_ = getelementptr inbounds i8, ptr %this, i64 208
  %_M_finish.i = getelementptr inbounds i8, ptr %this, i64 216
  %2 = load ptr, ptr %_M_finish.i, align 8
  %3 = load ptr, ptr %bufs_, align 8
  %sub.ptr.lhs.cast.i = ptrtoint ptr %2 to i64
  %sub.ptr.rhs.cast.i = ptrtoint ptr %3 to i64
  %sub.ptr.sub.i = sub i64 %sub.ptr.lhs.cast.i, %sub.ptr.rhs.cast.i
  %sub.ptr.div.i = ashr exact i64 %sub.ptr.sub.i, 3
  %cmp = icmp ult i64 %1, %sub.ptr.div.i
  br i1 %cmp, label %if.then, label %if.end

if.then:                                          ; preds = %entry
  invoke void @_ZN7rocksdb18WriteableCacheFile14DispatchBufferEv(ptr noundef nonnull align 8 dereferenceable(273) %this)
          to label %if.end unwind label %lpad

lpad:                                             ; preds = %.noexc, %if.then9, %if.then
  %4 = landingpad { ptr, i32 }
          cleanup
  invoke void @_ZN7rocksdb4port7RWMutex11WriteUnlockEv(ptr noundef nonnull align 8 dereferenceable(56) %rwlock_)
          to label %_ZN7rocksdb9WriteLockD2Ev.exit unwind label %terminate.lpad.i

terminate.lpad.i:                                 ; preds = %lpad
  %5 = landingpad { ptr, i32 }
          catch ptr null
  %6 = extractvalue { ptr, i32 } %5, 0
  tail call void @__clang_call_terminate(ptr %6) #18
  unreachable

_ZN7rocksdb9WriteLockD2Ev.exit:                   ; preds = %lpad
  resume { ptr, i32 } %4

if.end:                                           ; preds = %if.then, %entry
  %eof_ = getelementptr inbounds i8, ptr %this, i64 240
  %7 = load i8, ptr %eof_, align 8
  %8 = and i8 %7, 1
  %tobool.not = icmp eq i8 %8, 0
  br i1 %tobool.not, label %if.end11, label %land.lhs.true

land.lhs.true:                                    ; preds = %if.end
  %9 = load i64, ptr %buf_doff_, align 8
  %10 = load ptr, ptr %_M_finish.i, align 8
  %11 = load ptr, ptr %bufs_, align 8
  %sub.ptr.lhs.cast.i2 = ptrtoint ptr %10 to i64
  %sub.ptr.rhs.cast.i3 = ptrtoint ptr %11 to i64
  %sub.ptr.sub.i4 = sub i64 %sub.ptr.lhs.cast.i2, %sub.ptr.rhs.cast.i3
  %sub.ptr.div.i5 = ashr exact i64 %sub.ptr.sub.i4, 3
  %cmp5.not = icmp uge i64 %9, %sub.ptr.div.i5
  %12 = load i64, ptr %pending_ios_, align 8
  %tobool8.not = icmp eq i64 %12, 0
  %or.cond = select i1 %cmp5.not, i1 %tobool8.not, i1 false
  br i1 %or.cond, label %if.then9, label %if.end11

if.then9:                                         ; preds = %land.lhs.true
  invoke void @_ZN7rocksdb18WriteableCacheFile5CloseEv(ptr noundef nonnull align 8 dereferenceable(273) %this)
          to label %.noexc unwind label %lpad

.noexc:                                           ; preds = %if.then9
  %enable_direct_reads_.i = getelementptr inbounds i8, ptr %this, i64 272
  %13 = load i8, ptr %enable_direct_reads_.i, align 8
  %14 = and i8 %13, 1
  %tobool.i = icmp ne i8 %14, 0
  %call.i6 = invoke noundef zeroext i1 @_ZN7rocksdb21RandomAccessCacheFile8OpenImplEb(ptr noundef nonnull align 8 dereferenceable(184) %this, i1 noundef zeroext %tobool.i)
          to label %if.end11 unwind label %lpad

if.end11:                                         ; preds = %.noexc, %land.lhs.true, %if.end
  invoke void @_ZN7rocksdb4port7RWMutex11WriteUnlockEv(ptr noundef nonnull align 8 dereferenceable(56) %rwlock_)
          to label %_ZN7rocksdb9WriteLockD2Ev.exit8 unwind label %terminate.lpad.i7

terminate.lpad.i7:                                ; preds = %if.end11
  %15 = landingpad { ptr, i32 }
          catch ptr null
  %16 = extractvalue { ptr, i32 } %15, 0
  tail call void @__clang_call_terminate(ptr %16) #18
  unreachable

_ZN7rocksdb9WriteLockD2Ev.exit8:                  ; preds = %if.end11
  ret void
}